; ModuleID = 'source-C-CXX/48/1280.cpp'
source_filename = "source-C-CXX/48/1280.cpp"
target datalayout = "e-m:e-p270:32:32-p271:32:32-p272:64:64-i64:64-f80:128-n8:16:32:64-S128"
target triple = "x86_64-pc-linux-gnu"

%"class.std::ios_base::Init" = type { i8 }
%"class.std::basic_ostream" = type { i32 (...)**, %"class.std::basic_ios" }
%"class.std::basic_ios" = type { %"class.std::ios_base", %"class.std::basic_ostream"*, i8, i8, %"class.std::basic_streambuf"*, %"class.std::ctype"*, %"class.std::num_put"*, %"class.std::num_get"* }
%"class.std::ios_base" = type { i32 (...)**, i64, i64, i32, i32, i32, %"struct.std::ios_base::_Callback_list"*, %"struct.std::ios_base::_Words", [8 x %"struct.std::ios_base::_Words"], i32, %"struct.std::ios_base::_Words"*, %"class.std::locale" }
%"struct.std::ios_base::_Callback_list" = type { %"struct.std::ios_base::_Callback_list"*, void (i32, %"class.std::ios_base"*, i32)*, i32, i32 }
%"struct.std::ios_base::_Words" = type { i8*, i64 }
%"class.std::locale" = type { %"class.std::locale::_Impl"* }
%"class.std::locale::_Impl" = type { i32, %"class.std::locale::facet"**, i64, %"class.std::locale::facet"**, i8** }
%"class.std::locale::facet" = type <{ i32 (...)**, i32, [4 x i8] }>
%"class.std::basic_streambuf" = type { i32 (...)**, i8*, i8*, i8*, i8*, i8*, i8*, %"class.std::locale" }
%"class.std::ctype" = type <{ %"class.std::locale::facet.base", [4 x i8], %struct.__locale_struct*, i8, [7 x i8], i32*, i32*, i16*, i8, [256 x i8], [256 x i8], i8, [6 x i8] }>
%"class.std::locale::facet.base" = type <{ i32 (...)**, i32 }>
%struct.__locale_struct = type { [13 x %struct.__locale_data*], i16*, i32*, i32*, [13 x i8*] }
%struct.__locale_data = type opaque
%"class.std::num_put" = type { %"class.std::locale::facet.base", [4 x i8] }
%"class.std::num_get" = type { %"class.std::locale::facet.base", [4 x i8] }
%"class.std::basic_istream" = type { i32 (...)**, i64, %"class.std::basic_ios" }

@_ZStL8__ioinit = internal global %"class.std::ios_base::Init" zeroinitializer, align 1
@__dso_handle = external hidden global i8
@a = dso_local global [500 x i8] zeroinitializer, align 16
@b = dso_local global [500 x i8] zeroinitializer, align 16
@L = dso_local local_unnamed_addr global i32 0, align 4
@_ZSt4cout = external global %"class.std::basic_ostream", align 8
@_ZSt3cin = external global %"class.std::basic_istream", align 8
@llvm.global_ctors = appending global [1 x { i32, void ()*, i8* }] [{ i32, void ()*, i8* } { i32 65535, void ()* @_GLOBAL__sub_I_1280.cpp, i8* null }]

declare void @_ZNSt8ios_base4InitC1Ev(%"class.std::ios_base::Init"* nonnull align 1 dereferenceable(1)) unnamed_addr #0

; Function Attrs: nounwind
declare void @_ZNSt8ios_base4InitD1Ev(%"class.std::ios_base::Init"* nonnull align 1 dereferenceable(1)) unnamed_addr #1

; Function Attrs: nofree nounwind
declare i32 @__cxa_atexit(void (i8*)*, i8*, i8*) local_unnamed_addr #2

; Function Attrs: mustprogress sspstrong uwtable
define dso_local void @_Z5checkPc(i8* %0) local_unnamed_addr #3 {
  %2 = tail call i64 @strlen(i8* noundef nonnull dereferenceable(1) %0) #9
  %3 = shl i64 %2, 32
  %4 = add i64 %3, -4294967296
  %5 = ashr exact i64 %4, 32
  br label %6

6:                                                ; preds = %14, %1
  %7 = phi i64 [ %16, %14 ], [ %5, %1 ]
  %8 = phi i64 [ %15, %14 ], [ 0, %1 ]
  %9 = getelementptr inbounds i8, i8* %0, i64 %8
  %10 = load i8, i8* %9, align 1, !tbaa !5
  %11 = getelementptr inbounds i8, i8* %0, i64 %7
  %12 = load i8, i8* %11, align 1, !tbaa !5
  %13 = icmp eq i8 %10, %12
  br i1 %13, label %14, label %48

14:                                               ; preds = %6
  %15 = add nuw nsw i64 %8, 1
  %16 = add nsw i64 %7, -1
  %17 = icmp slt i64 %8, %16
  br i1 %17, label %6, label %18, !llvm.loop !8

18:                                               ; preds = %14
  %19 = tail call i64 @strlen(i8* noundef nonnull dereferenceable(1) %0) #10
  %20 = tail call nonnull align 8 dereferenceable(8) %"class.std::basic_ostream"* @_ZSt16__ostream_insertIcSt11char_traitsIcEERSt13basic_ostreamIT_T0_ES6_PKS3_l(%"class.std::basic_ostream"* nonnull align 8 dereferenceable(8) @_ZSt4cout, i8* nonnull %0, i64 %19)
  %21 = load i8*, i8** bitcast (%"class.std::basic_ostream"* @_ZSt4cout to i8**), align 8, !tbaa !10
  %22 = getelementptr i8, i8* %21, i64 -24
  %23 = bitcast i8* %22 to i64*
  %24 = load i64, i64* %23, align 8
  %25 = add nsw i64 %24, 240
  %26 = getelementptr inbounds i8, i8* bitcast (%"class.std::basic_ostream"* @_ZSt4cout to i8*), i64 %25
  %27 = bitcast i8* %26 to %"class.std::ctype"**
  %28 = load %"class.std::ctype"*, %"class.std::ctype"** %27, align 8, !tbaa !12
  %29 = icmp eq %"class.std::ctype"* %28, null
  br i1 %29, label %30, label %31

30:                                               ; preds = %18
  tail call void @_ZSt16__throw_bad_castv() #11
  unreachable

31:                                               ; preds = %18
  %32 = getelementptr inbounds %"class.std::ctype", %"class.std::ctype"* %28, i64 0, i32 8
  %33 = load i8, i8* %32, align 8, !tbaa !16
  %34 = icmp eq i8 %33, 0
  br i1 %34, label %38, label %35

35:                                               ; preds = %31
  %36 = getelementptr inbounds %"class.std::ctype", %"class.std::ctype"* %28, i64 0, i32 9, i64 10
  %37 = load i8, i8* %36, align 1, !tbaa !5
  br label %44

38:                                               ; preds = %31
  tail call void @_ZNKSt5ctypeIcE13_M_widen_initEv(%"class.std::ctype"* nonnull align 8 dereferenceable(570) %28)
  %39 = bitcast %"class.std::ctype"* %28 to i8 (%"class.std::ctype"*, i8)***
  %40 = load i8 (%"class.std::ctype"*, i8)**, i8 (%"class.std::ctype"*, i8)*** %39, align 8, !tbaa !10
  %41 = getelementptr inbounds i8 (%"class.std::ctype"*, i8)*, i8 (%"class.std::ctype"*, i8)** %40, i64 6
  %42 = load i8 (%"class.std::ctype"*, i8)*, i8 (%"class.std::ctype"*, i8)** %41, align 8
  %43 = tail call signext i8 %42(%"class.std::ctype"* nonnull align 8 dereferenceable(570) %28, i8 signext 10)
  br label %44

44:                                               ; preds = %35, %38
  %45 = phi i8 [ %37, %35 ], [ %43, %38 ]
  %46 = tail call nonnull align 8 dereferenceable(8) %"class.std::basic_ostream"* @_ZNSo3putEc(%"class.std::basic_ostream"* nonnull align 8 dereferenceable(8) @_ZSt4cout, i8 signext %45)
  %47 = tail call nonnull align 8 dereferenceable(8) %"class.std::basic_ostream"* @_ZNSo5flushEv(%"class.std::basic_ostream"* nonnull align 8 dereferenceable(8) %46)
  br label %48

48:                                               ; preds = %6, %44
  ret void
}

; Function Attrs: argmemonly mustprogress nofree nounwind readonly willreturn
declare i64 @strlen(i8* nocapture) local_unnamed_addr #4

; Function Attrs: mustprogress norecurse sspstrong uwtable
define dso_local i32 @main() local_unnamed_addr #5 {
  tail call void @_ZSt17__istream_extractRSiPcl(%"class.std::basic_istream"* nonnull align 8 dereferenceable(16) @_ZSt3cin, i8* nonnull getelementptr inbounds ([500 x i8], [500 x i8]* @a, i64 0, i64 0), i64 500)
  %1 = tail call i64 @strlen(i8* noundef nonnull dereferenceable(1) getelementptr inbounds ([500 x i8], [500 x i8]* @a, i64 0, i64 0)) #9
  %2 = trunc i64 %1 to i32
  store i32 %2, i32* @L, align 4, !tbaa !18
  %3 = icmp slt i32 %2, 2
  br i1 %3, label %75, label %4

4:                                                ; preds = %0, %70
  %5 = phi i32 [ %71, %70 ], [ %2, %0 ]
  %6 = phi i64 [ %74, %70 ], [ 0, %0 ]
  %7 = phi i32 [ %72, %70 ], [ 2, %0 ]
  %8 = add nuw nsw i64 %6, 2
  %9 = icmp slt i32 %5, %7
  br i1 %9, label %70, label %10

10:                                               ; preds = %4, %63
  %11 = phi i32 [ %64, %63 ], [ %5, %4 ]
  %12 = phi i32 [ %65, %63 ], [ %5, %4 ]
  %13 = phi i64 [ %69, %63 ], [ 0, %4 ]
  %14 = phi i32 [ %66, %63 ], [ 0, %4 ]
  %15 = getelementptr [500 x i8], [500 x i8]* @a, i64 0, i64 %13
  call void @llvm.memcpy.p0i8.p0i8.i64(i8* noundef nonnull align 16 dereferenceable(1) getelementptr inbounds ([500 x i8], [500 x i8]* @b, i64 0, i64 0), i8* noundef nonnull align 1 dereferenceable(1) %15, i64 %8, i1 false)
  %16 = tail call i64 @strlen(i8* noundef nonnull dereferenceable(1) getelementptr inbounds ([500 x i8], [500 x i8]* @b, i64 0, i64 0)) #9
  %17 = shl i64 %16, 32
  %18 = add i64 %17, -4294967296
  %19 = ashr exact i64 %18, 32
  br label %20

20:                                               ; preds = %28, %10
  %21 = phi i64 [ %30, %28 ], [ %19, %10 ]
  %22 = phi i64 [ %29, %28 ], [ 0, %10 ]
  %23 = getelementptr inbounds [500 x i8], [500 x i8]* @b, i64 0, i64 %22
  %24 = load i8, i8* %23, align 1, !tbaa !5
  %25 = getelementptr inbounds [500 x i8], [500 x i8]* @b, i64 0, i64 %21
  %26 = load i8, i8* %25, align 1, !tbaa !5
  %27 = icmp eq i8 %24, %26
  br i1 %27, label %28, label %63

28:                                               ; preds = %20
  %29 = add nuw nsw i64 %22, 1
  %30 = add nsw i64 %21, -1
  %31 = icmp slt i64 %22, %30
  br i1 %31, label %20, label %32, !llvm.loop !8

32:                                               ; preds = %28
  %33 = tail call i64 @strlen(i8* noundef nonnull dereferenceable(1) getelementptr inbounds ([500 x i8], [500 x i8]* @b, i64 0, i64 0)) #10
  %34 = tail call nonnull align 8 dereferenceable(8) %"class.std::basic_ostream"* @_ZSt16__ostream_insertIcSt11char_traitsIcEERSt13basic_ostreamIT_T0_ES6_PKS3_l(%"class.std::basic_ostream"* nonnull align 8 dereferenceable(8) @_ZSt4cout, i8* nonnull getelementptr inbounds ([500 x i8], [500 x i8]* @b, i64 0, i64 0), i64 %33)
  %35 = load i8*, i8** bitcast (%"class.std::basic_ostream"* @_ZSt4cout to i8**), align 8, !tbaa !10
  %36 = getelementptr i8, i8* %35, i64 -24
  %37 = bitcast i8* %36 to i64*
  %38 = load i64, i64* %37, align 8
  %39 = add nsw i64 %38, 240
  %40 = getelementptr inbounds i8, i8* bitcast (%"class.std::basic_ostream"* @_ZSt4cout to i8*), i64 %39
  %41 = bitcast i8* %40 to %"class.std::ctype"**
  %42 = load %"class.std::ctype"*, %"class.std::ctype"** %41, align 8, !tbaa !12
  %43 = icmp eq %"class.std::ctype"* %42, null
  br i1 %43, label %44, label %45

44:                                               ; preds = %32
  tail call void @_ZSt16__throw_bad_castv() #11
  unreachable

45:                                               ; preds = %32
  %46 = getelementptr inbounds %"class.std::ctype", %"class.std::ctype"* %42, i64 0, i32 8
  %47 = load i8, i8* %46, align 8, !tbaa !16
  %48 = icmp eq i8 %47, 0
  br i1 %48, label %52, label %49

49:                                               ; preds = %45
  %50 = getelementptr inbounds %"class.std::ctype", %"class.std::ctype"* %42, i64 0, i32 9, i64 10
  %51 = load i8, i8* %50, align 1, !tbaa !5
  br label %58

52:                                               ; preds = %45
  tail call void @_ZNKSt5ctypeIcE13_M_widen_initEv(%"class.std::ctype"* nonnull align 8 dereferenceable(570) %42)
  %53 = bitcast %"class.std::ctype"* %42 to i8 (%"class.std::ctype"*, i8)***
  %54 = load i8 (%"class.std::ctype"*, i8)**, i8 (%"class.std::ctype"*, i8)*** %53, align 8, !tbaa !10
  %55 = getelementptr inbounds i8 (%"class.std::ctype"*, i8)*, i8 (%"class.std::ctype"*, i8)** %54, i64 6
  %56 = load i8 (%"class.std::ctype"*, i8)*, i8 (%"class.std::ctype"*, i8)** %55, align 8
  %57 = tail call signext i8 %56(%"class.std::ctype"* nonnull align 8 dereferenceable(570) %42, i8 signext 10)
  br label %58

58:                                               ; preds = %52, %49
  %59 = phi i8 [ %51, %49 ], [ %57, %52 ]
  %60 = tail call nonnull align 8 dereferenceable(8) %"class.std::basic_ostream"* @_ZNSo3putEc(%"class.std::basic_ostream"* nonnull align 8 dereferenceable(8) @_ZSt4cout, i8 signext %59)
  %61 = tail call nonnull align 8 dereferenceable(8) %"class.std::basic_ostream"* @_ZNSo5flushEv(%"class.std::basic_ostream"* nonnull align 8 dereferenceable(8) %60)
  %62 = load i32, i32* @L, align 4, !tbaa !18
  br label %63

63:                                               ; preds = %20, %58
  %64 = phi i32 [ %62, %58 ], [ %11, %20 ]
  %65 = phi i32 [ %62, %58 ], [ %12, %20 ]
  %66 = add nuw nsw i32 %14, 1
  %67 = sub nsw i32 %65, %7
  %68 = icmp slt i32 %14, %67
  %69 = add nuw nsw i64 %13, 1
  br i1 %68, label %10, label %70, !llvm.loop !20

70:                                               ; preds = %63, %4
  %71 = phi i32 [ %5, %4 ], [ %64, %63 ]
  %72 = add nuw nsw i32 %7, 1
  %73 = icmp slt i32 %7, %71
  %74 = add nuw nsw i64 %6, 1
  br i1 %73, label %4, label %75, !llvm.loop !21

75:                                               ; preds = %70, %0
  ret i32 0
}

declare nonnull align 8 dereferenceable(8) %"class.std::basic_ostream"* @_ZSt16__ostream_insertIcSt11char_traitsIcEERSt13basic_ostreamIT_T0_ES6_PKS3_l(%"class.std::basic_ostream"* nonnull align 8 dereferenceable(8), i8*, i64) local_unnamed_addr #0

declare nonnull align 8 dereferenceable(8) %"class.std::basic_ostream"* @_ZNSo3putEc(%"class.std::basic_ostream"* nonnull align 8 dereferenceable(8), i8 signext) local_unnamed_addr #0

declare nonnull align 8 dereferenceable(8) %"class.std::basic_ostream"* @_ZNSo5flushEv(%"class.std::basic_ostream"* nonnull align 8 dereferenceable(8)) local_unnamed_addr #0

; Function Attrs: noreturn
declare void @_ZSt16__throw_bad_castv() local_unnamed_addr #6

declare void @_ZNKSt5ctypeIcE13_M_widen_initEv(%"class.std::ctype"* nonnull align 8 dereferenceable(570)) local_unnamed_addr #0

declare void @_ZSt17__istream_extractRSiPcl(%"class.std::basic_istream"* nonnull align 8 dereferenceable(16), i8*, i64) local_unnamed_addr #0

; Function Attrs: sspstrong uwtable
define internal void @_GLOBAL__sub_I_1280.cpp() #7 section ".text.startup" {
  tail call void @_ZNSt8ios_base4InitC1Ev(%"class.std::ios_base::Init"* nonnull align 1 dereferenceable(1) @_ZStL8__ioinit)
  %1 = tail call i32 @__cxa_atexit(void (i8*)* bitcast (void (%"class.std::ios_base::Init"*)* @_ZNSt8ios_base4InitD1Ev to void (i8*)*), i8* getelementptr inbounds (%"class.std::ios_base::Init", %"class.std::ios_base::Init"* @_ZStL8__ioinit, i64 0, i32 0), i8* nonnull @__dso_handle) #10
  ret void
}

; Function Attrs: argmemonly nofree nounwind willreturn
declare void @llvm.memcpy.p0i8.p0i8.i64(i8* noalias nocapture writeonly, i8* noalias nocapture readonly, i64, i1 immarg) #8


!llvm.module.flags = !{!0, !1, !2, !3}
!llvm.ident = !{!4}

!0 = !{i32 1, !"wchar_size", i32 4}
!1 = !{i32 7, !"PIC Level", i32 2}
!2 = !{i32 7, !"PIE Level", i32 2}
!3 = !{i32 7, !"uwtable", i32 1}
!4 = !{!"clang version 13.0.0"}
!5 = !{!6, !6, i64 0}
!6 = !{!"omnipotent char", !7, i64 0}
!7 = !{!"Simple C++ TBAA"}
!8 = distinct !{!8, !9}
!9 = !{!"llvm.loop.mustprogress"}
!10 = !{!11, !11, i64 0}
!11 = !{!"vtable pointer", !7, i64 0}
!12 = !{!13, !14, i64 240}
!13 = !{!"_ZTSSt9basic_iosIcSt11char_traitsIcEE", !14, i64 216, !6, i64 224, !15, i64 225, !14, i64 232, !14, i64 240, !14, i64 248, !14, i64 256}
!14 = !{!"any pointer", !6, i64 0}
!15 = !{!"bool", !6, i64 0}
!16 = !{!17, !6, i64 56}
!17 = !{!"_ZTSSt5ctypeIcE", !14, i64 16, !15, i64 24, !14, i64 32, !14, i64 40, !14, i64 48, !6, i64 56, !6, i64 57, !6, i64 313, !6, i64 569}
!18 = !{!19, !19, i64 0}
!19 = !{!"int", !6, i64 0}
!20 = distinct !{!20, !9}
!21 = distinct !{!21, !9}
